target datalayout = "e-m:e-p270:32:32-p271:32:32-p272:64:64-i64:64-i128:128-f80:128-n8:16:32:64-S128"
target triple = "x86_64-pc-linux-gnu"

@bio_err = external global ptr, align 8
@batch = internal global i32 0, align 4
@.str.128 = private unnamed_addr constant [4 x i8] c"%s\0A\00", align 1
@.str.205 = private unnamed_addr constant [2 x i8] c"\0A\00", align 1
@.str.232 = private unnamed_addr constant [18 x i8] c"%s '%s' too long\0A\00", align 1
@.str.235 = private unnamed_addr constant [9 x i8] c"%s [%s]:\00", align 1
@stdin = external global ptr, align 8
@.str.236 = private unnamed_addr constant [33 x i8] c"Missing newline at end of input\0A\00", align 1
@.str.237 = private unnamed_addr constant [50 x i8] c"String too short, must be at least %d bytes long\0A\00", align 1
@.str.238 = private unnamed_addr constant [48 x i8] c"String too long, must be at most %d bytes long\0A\00", align 1

; Function Attrs: nounwind uwtable
define internal i32 @req_check_len(i32 noundef %0, i32 noundef %1, i32 noundef %2) #0 {
  %4 = alloca i32, align 4
  %5 = alloca i32, align 4
  %6 = alloca i32, align 4
  %7 = alloca i32, align 4
  store i32 %0, ptr %5, align 4, !tbaa !4
  store i32 %1, ptr %6, align 4, !tbaa !4
  store i32 %2, ptr %7, align 4, !tbaa !4
  %8 = load i32, ptr %6, align 4, !tbaa !4
  %9 = icmp sgt i32 %8, 0
  br i1 %9, label %10, label %18

10:                                               ; preds = %3
  %11 = load i32, ptr %5, align 4, !tbaa !4
  %12 = load i32, ptr %6, align 4, !tbaa !4
  %13 = icmp slt i32 %11, %12
  br i1 %13, label %14, label %18

14:                                               ; preds = %10
  %15 = load ptr, ptr @bio_err, align 8, !tbaa !13
  %16 = load i32, ptr %6, align 4, !tbaa !4
  %17 = call i32 (ptr, ptr, ...) @BIO_printf(ptr noundef %15, ptr noundef @.str.237, i32 noundef %16)
  store i32 0, ptr %4, align 4
  br label %30

18:                                               ; preds = %10, %3
  %19 = load i32, ptr %7, align 4, !tbaa !4
  %20 = icmp sge i32 %19, 0
  br i1 %20, label %21, label %29

21:                                               ; preds = %18
  %22 = load i32, ptr %5, align 4, !tbaa !4
  %23 = load i32, ptr %7, align 4, !tbaa !4
  %24 = icmp sgt i32 %22, %23
  br i1 %24, label %25, label %29

25:                                               ; preds = %21
  %26 = load ptr, ptr @bio_err, align 8, !tbaa !13
  %27 = load i32, ptr %7, align 4, !tbaa !4
  %28 = call i32 (ptr, ptr, ...) @BIO_printf(ptr noundef %26, ptr noundef @.str.238, i32 noundef %27)
  store i32 0, ptr %4, align 4
  br label %30

29:                                               ; preds = %21, %18
  store i32 1, ptr %4, align 4
  br label %30

30:                                               ; preds = %29, %25, %14
  %31 = load i32, ptr %4, align 4
  ret i32 %31
}

; Function Attrs: nounwind uwtable
define internal i32 @join(ptr noundef %0, i64 noundef %1, ptr noundef %2, ptr noundef %3, ptr noundef %4) #0 {
  %6 = alloca i32, align 4
  %7 = alloca ptr, align 8
  %8 = alloca i64, align 8
  %9 = alloca ptr, align 8
  %10 = alloca ptr, align 8
  %11 = alloca ptr, align 8
  %12 = alloca i64, align 8
  %13 = alloca i64, align 8
  %14 = alloca i32, align 4
  store ptr %0, ptr %7, align 8, !tbaa !31
  store i64 %1, ptr %8, align 8, !tbaa !35
  store ptr %2, ptr %9, align 8, !tbaa !31
  store ptr %3, ptr %10, align 8, !tbaa !31
  store ptr %4, ptr %11, align 8, !tbaa !31
  call void @llvm.lifetime.start.p0(i64 8, ptr %12) #10
  %15 = load ptr, ptr %9, align 8, !tbaa !31
  %16 = call i64 @strlen(ptr noundef %15) #11
  store i64 %16, ptr %12, align 8, !tbaa !35
  call void @llvm.lifetime.start.p0(i64 8, ptr %13) #10
  %17 = load ptr, ptr %10, align 8, !tbaa !31
  %18 = call i64 @strlen(ptr noundef %17) #11
  store i64 %18, ptr %13, align 8, !tbaa !35
  %19 = load i64, ptr %12, align 8, !tbaa !35
  %20 = load i64, ptr %13, align 8, !tbaa !35
  %21 = add i64 %19, %20
  %22 = add i64 %21, 1
  %23 = load i64, ptr %8, align 8, !tbaa !35
  %24 = icmp ugt i64 %22, %23
  br i1 %24, label %25, label %30

25:                                               ; preds = %5
  %26 = load ptr, ptr @bio_err, align 8, !tbaa !13
  %27 = load ptr, ptr %11, align 8, !tbaa !31
  %28 = load ptr, ptr %9, align 8, !tbaa !31
  %29 = call i32 (ptr, ptr, ...) @BIO_printf(ptr noundef %26, ptr noundef @.str.232, ptr noundef %27, ptr noundef %28)
  store i32 0, ptr %6, align 4
  store i32 1, ptr %14, align 4
  br label %40

30:                                               ; preds = %5
  %31 = load ptr, ptr %7, align 8, !tbaa !31
  %32 = load ptr, ptr %9, align 8, !tbaa !31
  %33 = load i64, ptr %12, align 8, !tbaa !35
  call void @llvm.memcpy.p0.p0.i64(ptr align 1 %31, ptr align 1 %32, i64 %33, i1 false)
  %34 = load ptr, ptr %7, align 8, !tbaa !31
  %35 = load i64, ptr %12, align 8, !tbaa !35
  %36 = getelementptr inbounds nuw i8, ptr %34, i64 %35
  %37 = load ptr, ptr %10, align 8, !tbaa !31
  %38 = load i64, ptr %13, align 8, !tbaa !35
  %39 = add i64 %38, 1
  call void @llvm.memcpy.p0.p0.i64(ptr align 1 %36, ptr align 1 %37, i64 %39, i1 false)
  store i32 1, ptr %6, align 4
  store i32 1, ptr %14, align 4
  br label %40

40:                                               ; preds = %30, %25
  call void @llvm.lifetime.end.p0(i64 8, ptr %13) #10
  call void @llvm.lifetime.end.p0(i64 8, ptr %12) #10
  %41 = load i32, ptr %6, align 4
  ret i32 %41
}

; Function Attrs: nounwind uwtable
define internal i32 @build_data(ptr noundef %0, ptr noundef %1, ptr noundef %2, i32 noundef %3, i32 noundef %4, ptr noundef %5, i32 noundef %6, ptr noundef %7, ptr noundef %8) #0 {
  %10 = alloca i32, align 4
  %11 = alloca ptr, align 8
  %12 = alloca ptr, align 8
  %13 = alloca ptr, align 8
  %14 = alloca i32, align 4
  %15 = alloca i32, align 4
  %16 = alloca ptr, align 8
  %17 = alloca i32, align 4
  %18 = alloca ptr, align 8
  %19 = alloca ptr, align 8
  %20 = alloca i32, align 4
  %21 = alloca i32, align 4
  store ptr %0, ptr %11, align 8, !tbaa !31
  store ptr %1, ptr %12, align 8, !tbaa !31
  store ptr %2, ptr %13, align 8, !tbaa !31
  store i32 %3, ptr %14, align 4, !tbaa !4
  store i32 %4, ptr %15, align 4, !tbaa !4
  store ptr %5, ptr %16, align 8, !tbaa !31
  store i32 %6, ptr %17, align 4, !tbaa !4
  store ptr %7, ptr %18, align 8, !tbaa !31
  store ptr %8, ptr %19, align 8, !tbaa !31
  call void @llvm.lifetime.start.p0(i64 4, ptr %20) #10
  br label %22

22:                                               ; preds = %147, %9
  %23 = load i32, ptr @batch, align 4, !tbaa !4
  %24 = icmp ne i32 %23, 0
  br i1 %24, label %30, label %25

25:                                               ; preds = %22
  %26 = load ptr, ptr @bio_err, align 8, !tbaa !13
  %27 = load ptr, ptr %11, align 8, !tbaa !31
  %28 = load ptr, ptr %12, align 8, !tbaa !31
  %29 = call i32 (ptr, ptr, ...) @BIO_printf(ptr noundef %26, ptr noundef @.str.235, ptr noundef %27, ptr noundef %28)
  br label %30

30:                                               ; preds = %25, %22
  %31 = load ptr, ptr @bio_err, align 8, !tbaa !13
  %32 = call i64 @BIO_ctrl(ptr noundef %31, i32 noundef 11, i64 noundef 0, ptr noundef null)
  %33 = load ptr, ptr %13, align 8, !tbaa !31
  %34 = icmp ne ptr %33, null
  br i1 %34, label %35, label %48

35:                                               ; preds = %30
  %36 = load ptr, ptr %16, align 8, !tbaa !31
  %37 = load i32, ptr %17, align 4, !tbaa !4
  %38 = sext i32 %37 to i64
  %39 = load ptr, ptr %13, align 8, !tbaa !31
  %40 = load ptr, ptr %18, align 8, !tbaa !31
  %41 = call i32 @join(ptr noundef %36, i64 noundef %38, ptr noundef %39, ptr noundef @.str.205, ptr noundef %40)
  %42 = icmp ne i32 %41, 0
  br i1 %42, label %44, label %43

43:                                               ; preds = %35
  store i32 0, ptr %10, align 4
  store i32 1, ptr %21, align 4
  br label %149

44:                                               ; preds = %35
  %45 = load ptr, ptr @bio_err, align 8, !tbaa !13
  %46 = load ptr, ptr %13, align 8, !tbaa !31
  %47 = call i32 (ptr, ptr, ...) @BIO_printf(ptr noundef %45, ptr noundef @.str.128, ptr noundef %46)
  br label %67

48:                                               ; preds = %30
  %49 = load ptr, ptr %16, align 8, !tbaa !31
  %50 = getelementptr inbounds i8, ptr %49, i64 0
  store i8 0, ptr %50, align 1, !tbaa !47
  %51 = load i32, ptr @batch, align 4, !tbaa !4
  %52 = icmp ne i32 %51, 0
  br i1 %52, label %61, label %53

53:                                               ; preds = %48
  %54 = load ptr, ptr %16, align 8, !tbaa !31
  %55 = load i32, ptr %17, align 4, !tbaa !4
  %56 = load ptr, ptr @stdin, align 8, !tbaa !64
  %57 = call ptr @fgets(ptr noundef %54, i32 noundef %55, ptr noundef %56)
  %58 = icmp ne ptr %57, null
  br i1 %58, label %60, label %59

59:                                               ; preds = %53
  store i32 0, ptr %10, align 4
  store i32 1, ptr %21, align 4
  br label %149

60:                                               ; preds = %53
  br label %66

61:                                               ; preds = %48
  %62 = load ptr, ptr %16, align 8, !tbaa !31
  %63 = getelementptr inbounds i8, ptr %62, i64 0
  store i8 10, ptr %63, align 1, !tbaa !47
  %64 = load ptr, ptr %16, align 8, !tbaa !31
  %65 = getelementptr inbounds i8, ptr %64, i64 1
  store i8 0, ptr %65, align 1, !tbaa !47
  br label %66

66:                                               ; preds = %61, %60
  br label %67

67:                                               ; preds = %66, %44
  %68 = load ptr, ptr %16, align 8, !tbaa !31
  %69 = getelementptr inbounds i8, ptr %68, i64 0
  %70 = load i8, ptr %69, align 1, !tbaa !47
  %71 = sext i8 %70 to i32
  %72 = icmp eq i32 %71, 0
  br i1 %72, label %73, label %74

73:                                               ; preds = %67
  store i32 0, ptr %10, align 4
  store i32 1, ptr %21, align 4
  br label %149

74:                                               ; preds = %67
  %75 = load ptr, ptr %16, align 8, !tbaa !31
  %76 = getelementptr inbounds i8, ptr %75, i64 0
  %77 = load i8, ptr %76, align 1, !tbaa !47
  %78 = sext i8 %77 to i32
  %79 = icmp eq i32 %78, 10
  br i1 %79, label %80, label %100

80:                                               ; preds = %74
  %81 = load ptr, ptr %12, align 8, !tbaa !31
  %82 = icmp eq ptr %81, null
  br i1 %82, label %89, label %83

83:                                               ; preds = %80
  %84 = load ptr, ptr %12, align 8, !tbaa !31
  %85 = getelementptr inbounds i8, ptr %84, i64 0
  %86 = load i8, ptr %85, align 1, !tbaa !47
  %87 = sext i8 %86 to i32
  %88 = icmp eq i32 %87, 0
  br i1 %88, label %89, label %90

89:                                               ; preds = %83, %80
  store i32 1, ptr %10, align 4
  store i32 1, ptr %21, align 4
  br label %149

90:                                               ; preds = %83
  %91 = load ptr, ptr %16, align 8, !tbaa !31
  %92 = load i32, ptr %17, align 4, !tbaa !4
  %93 = sext i32 %92 to i64
  %94 = load ptr, ptr %12, align 8, !tbaa !31
  %95 = load ptr, ptr %19, align 8, !tbaa !31
  %96 = call i32 @join(ptr noundef %91, i64 noundef %93, ptr noundef %94, ptr noundef @.str.205, ptr noundef %95)
  %97 = icmp ne i32 %96, 0
  br i1 %97, label %99, label %98

98:                                               ; preds = %90
  store i32 0, ptr %10, align 4
  store i32 1, ptr %21, align 4
  br label %149

99:                                               ; preds = %90
  br label %114

100:                                              ; preds = %74
  %101 = load ptr, ptr %16, align 8, !tbaa !31
  %102 = getelementptr inbounds i8, ptr %101, i64 0
  %103 = load i8, ptr %102, align 1, !tbaa !47
  %104 = sext i8 %103 to i32
  %105 = icmp eq i32 %104, 46
  br i1 %105, label %106, label %113

106:                                              ; preds = %100
  %107 = load ptr, ptr %16, align 8, !tbaa !31
  %108 = getelementptr inbounds i8, ptr %107, i64 1
  %109 = load i8, ptr %108, align 1, !tbaa !47
  %110 = sext i8 %109 to i32
  %111 = icmp eq i32 %110, 10
  br i1 %111, label %112, label %113

112:                                              ; preds = %106
  store i32 1, ptr %10, align 4
  store i32 1, ptr %21, align 4
  br label %149

113:                                              ; preds = %106, %100
  br label %114

114:                                              ; preds = %113, %99
  %115 = load ptr, ptr %16, align 8, !tbaa !31
  %116 = call i64 @strlen(ptr noundef %115) #11
  %117 = trunc i64 %116 to i32
  store i32 %117, ptr %20, align 4, !tbaa !4
  %118 = load ptr, ptr %16, align 8, !tbaa !31
  %119 = load i32, ptr %20, align 4, !tbaa !4
  %120 = sub nsw i32 %119, 1
  %121 = sext i32 %120 to i64
  %122 = getelementptr inbounds i8, ptr %118, i64 %121
  %123 = load i8, ptr %122, align 1, !tbaa !47
  %124 = sext i8 %123 to i32
  %125 = icmp ne i32 %124, 10
  br i1 %125, label %126, label %129

126:                                              ; preds = %114
  %127 = load ptr, ptr @bio_err, align 8, !tbaa !13
  %128 = call i32 (ptr, ptr, ...) @BIO_printf(ptr noundef %127, ptr noundef @.str.236)
  store i32 0, ptr %10, align 4
  store i32 1, ptr %21, align 4
  br label %149

129:                                              ; preds = %114
  %130 = load ptr, ptr %16, align 8, !tbaa !31
  %131 = load i32, ptr %20, align 4, !tbaa !4
  %132 = add nsw i32 %131, -1
  store i32 %132, ptr %20, align 4, !tbaa !4
  %133 = sext i32 %132 to i64
  %134 = getelementptr inbounds i8, ptr %130, i64 %133
  store i8 0, ptr %134, align 1, !tbaa !47
  %135 = load i32, ptr %20, align 4, !tbaa !4
  %136 = load i32, ptr %14, align 4, !tbaa !4
  %137 = load i32, ptr %15, align 4, !tbaa !4
  %138 = call i32 @req_check_len(i32 noundef %135, i32 noundef %136, i32 noundef %137)
  %139 = icmp ne i32 %138, 0
  br i1 %139, label %148, label %140

140:                                              ; preds = %129
  %141 = load i32, ptr @batch, align 4, !tbaa !4
  %142 = icmp ne i32 %141, 0
  br i1 %142, label %146, label %143

143:                                              ; preds = %140
  %144 = load ptr, ptr %13, align 8, !tbaa !31
  %145 = icmp ne ptr %144, null
  br i1 %145, label %146, label %147

146:                                              ; preds = %143, %140
  store i32 0, ptr %10, align 4
  store i32 1, ptr %21, align 4
  br label %149

147:                                              ; preds = %143
  br label %22

148:                                              ; preds = %129
  store i32 2, ptr %10, align 4
  store i32 1, ptr %21, align 4
  br label %149

149:                                              ; preds = %148, %146, %126, %112, %98, %89, %73, %59, %43
  call void @llvm.lifetime.end.p0(i64 4, ptr %20) #10
  %150 = load i32, ptr %10, align 4
  ret i32 %150
}