; Function Attrs: nounwind uwtable
define internal fastcc range(i32 0, 3) i32 @build_data(ptr noundef %0, ptr noundef %1, ptr noundef %2, i32 noundef %3, i32 noundef %4, ptr noundef nonnull %5, ptr noundef %6, ptr noundef %7) unnamed_addr #0 {
  %.b37.pr = load i1, ptr @batch, align 4
  %9 = icmp ne ptr %2, null
  %10 = getelementptr inbounds nuw i8, ptr %5, i64 1
  %11 = icmp eq ptr %1, null
  %12 = icmp sgt i32 %3, 0
  %13 = icmp sgt i32 %4, -1
  br i1 %.b37.pr, label %16, label %.critedge

.critedge:                                        ; preds = %71, %8
  %14 = load ptr, ptr @bio_err, align 8, !tbaa !13
  %15 = tail call i32 (ptr, ptr, ...) @BIO_printf(ptr noundef %14, ptr noundef nonnull @.str.235, ptr noundef %0, ptr noundef %1) #12
  br label %16

16:                                               ; preds = %.critedge, %8
  %17 = load ptr, ptr @bio_err, align 8, !tbaa !13
  %18 = tail call i64 @BIO_ctrl(ptr noundef %17, i32 noundef 11, i64 noundef 0, ptr noundef null) #12
  br i1 %9, label %19, label %29

19:                                               ; preds = %16
  %20 = tail call i64 @strlen(ptr noundef nonnull dereferenceable(1) %2) #14
  %21 = add i64 %20, -1023
  %22 = icmp ult i64 %21, -1025
  br i1 %22, label %join.exit.thread, label %25

join.exit.thread:                                 ; preds = %19
  %23 = load ptr, ptr @bio_err, align 8, !tbaa !13
  %24 = tail call i32 (ptr, ptr, ...) @BIO_printf(ptr noundef %23, ptr noundef nonnull @.str.232, ptr noundef %6, ptr noundef nonnull %2) #12
  br label %req_check_len.exit

25:                                               ; preds = %19
  tail call void @llvm.memcpy.p0.p0.i64(ptr nonnull align 1 %5, ptr nonnull align 1 %2, i64 %20, i1 false)
  %26 = getelementptr inbounds nuw i8, ptr %5, i64 %20
  store i16 10, ptr %26, align 1
  %27 = load ptr, ptr @bio_err, align 8, !tbaa !13
  %28 = tail call i32 (ptr, ptr, ...) @BIO_printf(ptr noundef %27, ptr noundef nonnull @.str.128, ptr noundef nonnull %2) #12
  br label %33

29:                                               ; preds = %16
  store i8 0, ptr %5, align 1, !tbaa !19
  %.b36 = load i1, ptr @batch, align 4
  br i1 %.b36, label %.thread, label %30

30:                                               ; preds = %29
  %31 = load ptr, ptr @stdin, align 8, !tbaa !36
  %32 = tail call ptr @fgets(ptr noundef nonnull %5, i32 noundef 1024, ptr noundef %31)
  %.not = icmp eq ptr %32, null
  br i1 %.not, label %req_check_len.exit, label %33

.thread:                                          ; preds = %29
  store i8 10, ptr %5, align 1, !tbaa !19
  store i8 0, ptr %10, align 1, !tbaa !19
  br label %34

33:                                               ; preds = %30, %25
  %.pr = load i8, ptr %5, align 1, !tbaa !19
  switch i8 %.pr, label %48 [
    i8 0, label %req_check_len.exit
    i8 10, label %34
    i8 46, label %45
  ]

34:                                               ; preds = %.thread, %33
  br i1 %11, label %req_check_len.exit, label %35

35:                                               ; preds = %34
  %36 = load i8, ptr %1, align 1, !tbaa !19
  %37 = icmp eq i8 %36, 0
  br i1 %37, label %req_check_len.exit, label %38

38:                                               ; preds = %35
  %39 = tail call i64 @strlen(ptr noundef nonnull dereferenceable(1) %1) #14
  %40 = add i64 %39, -1023
  %41 = icmp ult i64 %40, -1025
  br i1 %41, label %join.exit43.thread, label %join.exit43

join.exit43.thread:                               ; preds = %38
  %42 = load ptr, ptr @bio_err, align 8, !tbaa !13
  %43 = tail call i32 (ptr, ptr, ...) @BIO_printf(ptr noundef %42, ptr noundef nonnull @.str.232, ptr noundef %7, ptr noundef nonnull %1) #12
  br label %req_check_len.exit

join.exit43:                                      ; preds = %38
  tail call void @llvm.memcpy.p0.p0.i64(ptr nonnull align 1 %5, ptr nonnull align 1 %1, i64 %39, i1 false)
  %44 = getelementptr inbounds nuw i8, ptr %5, i64 %39
  store i16 10, ptr %44, align 1
  br label %48

45:                                               ; preds = %33
  %46 = load i8, ptr %10, align 1, !tbaa !19
  %47 = icmp eq i8 %46, 10
  br i1 %47, label %req_check_len.exit, label %48

48:                                               ; preds = %join.exit43, %33, %45
  %49 = tail call i64 @strlen(ptr noundef nonnull dereferenceable(1) %5) #14
  %50 = shl i64 %49, 32
  %sext = add i64 %50, -4294967296
  %51 = ashr exact i64 %sext, 32
  %52 = getelementptr inbounds i8, ptr %5, i64 %51
  %53 = load i8, ptr %52, align 1, !tbaa !19
  %.not40 = icmp eq i8 %53, 10
  br i1 %.not40, label %57, label %54

54:                                               ; preds = %48
  %55 = load ptr, ptr @bio_err, align 8, !tbaa !13
  %56 = tail call i32 (ptr, ptr, ...) @BIO_printf(ptr noundef %55, ptr noundef nonnull @.str.236) #12
  br label %req_check_len.exit

57:                                               ; preds = %48
  %58 = trunc i64 %49 to i32
  %59 = add nsw i32 %58, -1
  %60 = sext i32 %59 to i64
  %61 = getelementptr inbounds i8, ptr %5, i64 %60
  store i8 0, ptr %61, align 1, !tbaa !19
  %62 = icmp sge i32 %3, %58
  %or.cond.i = and i1 %12, %62
  br i1 %or.cond.i, label %63, label %66

63:                                               ; preds = %57
  %64 = load ptr, ptr @bio_err, align 8, !tbaa !13
  %65 = tail call i32 (ptr, ptr, ...) @BIO_printf(ptr noundef %64, ptr noundef nonnull @.str.237, i32 noundef %3) #12
  br label %71

66:                                               ; preds = %57
  %67 = icmp sgt i32 %59, %4
  %or.cond11.i = and i1 %13, %67
  br i1 %or.cond11.i, label %68, label %req_check_len.exit

68:                                               ; preds = %66
  %69 = load ptr, ptr @bio_err, align 8, !tbaa !13
  %70 = tail call i32 (ptr, ptr, ...) @BIO_printf(ptr noundef %69, ptr noundef nonnull @.str.238, i32 noundef %4) #12
  br label %71

71:                                               ; preds = %63, %68
  %.b = load i1, ptr @batch, align 4
  %or.cond = or i1 %9, %.b
  br i1 %or.cond, label %req_check_len.exit, label %.critedge

req_check_len.exit:                               ; preds = %66, %71, %45, %33, %34, %35, %30, %join.exit43.thread, %join.exit.thread, %54
  %.0 = phi i32 [ 0, %54 ], [ 0, %join.exit.thread ], [ 0, %join.exit43.thread ], [ 2, %66 ], [ 0, %71 ], [ 1, %45 ], [ 1, %34 ], [ 1, %35 ], [ 0, %33 ], [ 0, %30 ]
  ret i32 %.0
}